; ModuleID = '31/18.c'
source_filename = "31/18.c"
target datalayout = "e-m:e-p270:32:32-p271:32:32-p272:64:64-i64:64-f80:128-n8:16:32:64-S128"
target triple = "x86_64-pc-linux-gnu"

%struct.student = type { [20 x i8], [20 x i8], i8, i32, [20 x i8], [20 x i8], %struct.student* }

@.str = private unnamed_addr constant [19 x i8] c"%s %s %c %d %s %s\0A\00", align 1
@.str.1 = private unnamed_addr constant [4 x i8] c"end\00", align 1
@n = common dso_local global i32 0, align 4

; Function Attrs: noinline nounwind uwtable
define dso_local %struct.student* @input() #0 {
  %1 = alloca %struct.student*, align 8
  %2 = alloca %struct.student*, align 8
  %3 = alloca %struct.student*, align 8
  %4 = alloca i32, align 4
  store i32 0, i32* %4, align 4
  %5 = call noalias i8* @malloc(i64 96) #4
  %6 = bitcast i8* %5 to %struct.student*
  store %struct.student* %6, %struct.student** %2, align 8
  store %struct.student* %6, %struct.student** %1, align 8
  %7 = load %struct.student*, %struct.student** %1, align 8
  %8 = getelementptr inbounds %struct.student, %struct.student* %7, i32 0, i32 0
  %9 = getelementptr inbounds [20 x i8], [20 x i8]* %8, i64 0, i64 0
  %10 = load %struct.student*, %struct.student** %1, align 8
  %11 = getelementptr inbounds %struct.student, %struct.student* %10, i32 0, i32 1
  %12 = getelementptr inbounds [20 x i8], [20 x i8]* %11, i64 0, i64 0
  %13 = load %struct.student*, %struct.student** %1, align 8
  %14 = getelementptr inbounds %struct.student, %struct.student* %13, i32 0, i32 2
  %15 = load %struct.student*, %struct.student** %1, align 8
  %16 = getelementptr inbounds %struct.student, %struct.student* %15, i32 0, i32 3
  %17 = load %struct.student*, %struct.student** %1, align 8
  %18 = getelementptr inbounds %struct.student, %struct.student* %17, i32 0, i32 4
  %19 = getelementptr inbounds [20 x i8], [20 x i8]* %18, i64 0, i64 0
  %20 = load %struct.student*, %struct.student** %1, align 8
  %21 = getelementptr inbounds %struct.student, %struct.student* %20, i32 0, i32 5
  %22 = getelementptr inbounds [20 x i8], [20 x i8]* %21, i64 0, i64 0
  %23 = call i32 (i8*, ...) @__isoc99_scanf(i8* getelementptr inbounds ([19 x i8], [19 x i8]* @.str, i64 0, i64 0), i8* %9, i8* %12, i8* %14, i32* %16, i8* %19, i8* %22)
  store %struct.student* null, %struct.student** %3, align 8
  br label %24

24:                                               ; preds = %41, %0
  %25 = load %struct.student*, %struct.student** %1, align 8
  %26 = getelementptr inbounds %struct.student, %struct.student* %25, i32 0, i32 0
  %27 = getelementptr inbounds [20 x i8], [20 x i8]* %26, i64 0, i64 0
  %28 = call i32 @strcmp(i8* %27, i8* getelementptr inbounds ([4 x i8], [4 x i8]* @.str.1, i64 0, i64 0)) #5
  %29 = icmp ne i32 %28, 0
  br i1 %29, label %30, label %62

30:                                               ; preds = %24
  %31 = load i32, i32* %4, align 4
  %32 = add nsw i32 %31, 1
  store i32 %32, i32* %4, align 4
  %33 = load i32, i32* %4, align 4
  %34 = icmp eq i32 %33, 1
  br i1 %34, label %35, label %37

35:                                               ; preds = %30
  %36 = load %struct.student*, %struct.student** %1, align 8
  store %struct.student* %36, %struct.student** %3, align 8
  br label %41

37:                                               ; preds = %30
  %38 = load %struct.student*, %struct.student** %1, align 8
  %39 = load %struct.student*, %struct.student** %2, align 8
  %40 = getelementptr inbounds %struct.student, %struct.student* %39, i32 0, i32 6
  store %struct.student* %38, %struct.student** %40, align 8
  br label %41

41:                                               ; preds = %37, %35
  %42 = load %struct.student*, %struct.student** %1, align 8
  store %struct.student* %42, %struct.student** %2, align 8
  %43 = call noalias i8* @malloc(i64 96) #4
  %44 = bitcast i8* %43 to %struct.student*
  store %struct.student* %44, %struct.student** %1, align 8
  %45 = load %struct.student*, %struct.student** %1, align 8
  %46 = getelementptr inbounds %struct.student, %struct.student* %45, i32 0, i32 0
  %47 = getelementptr inbounds [20 x i8], [20 x i8]* %46, i64 0, i64 0
  %48 = load %struct.student*, %struct.student** %1, align 8
  %49 = getelementptr inbounds %struct.student, %struct.student* %48, i32 0, i32 1
  %50 = getelementptr inbounds [20 x i8], [20 x i8]* %49, i64 0, i64 0
  %51 = load %struct.student*, %struct.student** %1, align 8
  %52 = getelementptr inbounds %struct.student, %struct.student* %51, i32 0, i32 2
  %53 = load %struct.student*, %struct.student** %1, align 8
  %54 = getelementptr inbounds %struct.student, %struct.student* %53, i32 0, i32 3
  %55 = load %struct.student*, %struct.student** %1, align 8
  %56 = getelementptr inbounds %struct.student, %struct.student* %55, i32 0, i32 4
  %57 = getelementptr inbounds [20 x i8], [20 x i8]* %56, i64 0, i64 0
  %58 = load %struct.student*, %struct.student** %1, align 8
  %59 = getelementptr inbounds %struct.student, %struct.student* %58, i32 0, i32 5
  %60 = getelementptr inbounds [20 x i8], [20 x i8]* %59, i64 0, i64 0
  %61 = call i32 (i8*, ...) @__isoc99_scanf(i8* getelementptr inbounds ([19 x i8], [19 x i8]* @.str, i64 0, i64 0), i8* %47, i8* %50, i8* %52, i32* %54, i8* %57, i8* %60)
  br label %24

62:                                               ; preds = %24
  %63 = load %struct.student*, %struct.student** %2, align 8
  %64 = getelementptr inbounds %struct.student, %struct.student* %63, i32 0, i32 6
  store %struct.student* null, %struct.student** %64, align 8
  %65 = load %struct.student*, %struct.student** %3, align 8
  ret %struct.student* %65
}

; Function Attrs: nounwind
declare dso_local noalias i8* @malloc(i64) #1

declare dso_local i32 @__isoc99_scanf(i8*, ...) #2

; Function Attrs: nounwind readonly
declare dso_local i32 @strcmp(i8*, i8*) #3

; Function Attrs: noinline nounwind uwtable
define dso_local void @output(%struct.student* %0) #0 {
  %2 = alloca %struct.student*, align 8
  %3 = alloca %struct.student*, align 8
  store %struct.student* %0, %struct.student** %2, align 8
  %4 = load %struct.student*, %struct.student** %2, align 8
  store %struct.student* %4, %struct.student** %3, align 8
  %5 = load %struct.student*, %struct.student** %2, align 8
  %6 = icmp ne %struct.student* %5, null
  br i1 %6, label %7, label %36

7:                                                ; preds = %1
  br label %8

8:                                                ; preds = %32, %7
  %9 = load %struct.student*, %struct.student** %3, align 8
  %10 = getelementptr inbounds %struct.student, %struct.student* %9, i32 0, i32 0
  %11 = getelementptr inbounds [20 x i8], [20 x i8]* %10, i64 0, i64 0
  %12 = load %struct.student*, %struct.student** %3, align 8
  %13 = getelementptr inbounds %struct.student, %struct.student* %12, i32 0, i32 1
  %14 = getelementptr inbounds [20 x i8], [20 x i8]* %13, i64 0, i64 0
  %15 = load %struct.student*, %struct.student** %3, align 8
  %16 = getelementptr inbounds %struct.student, %struct.student* %15, i32 0, i32 2
  %17 = load i8, i8* %16, align 8
  %18 = sext i8 %17 to i32
  %19 = load %struct.student*, %struct.student** %3, align 8
  %20 = getelementptr inbounds %struct.student, %struct.student* %19, i32 0, i32 3
  %21 = load i32, i32* %20, align 4
  %22 = load %struct.student*, %struct.student** %3, align 8
  %23 = getelementptr inbounds %struct.student, %struct.student* %22, i32 0, i32 4
  %24 = getelementptr inbounds [20 x i8], [20 x i8]* %23, i64 0, i64 0
  %25 = load %struct.student*, %struct.student** %3, align 8
  %26 = getelementptr inbounds %struct.student, %struct.student* %25, i32 0, i32 5
  %27 = getelementptr inbounds [20 x i8], [20 x i8]* %26, i64 0, i64 0
  %28 = call i32 (i8*, ...) @printf(i8* getelementptr inbounds ([19 x i8], [19 x i8]* @.str, i64 0, i64 0), i8* %11, i8* %14, i32 %18, i32 %21, i8* %24, i8* %27)
  %29 = load %struct.student*, %struct.student** %3, align 8
  %30 = getelementptr inbounds %struct.student, %struct.student* %29, i32 0, i32 6
  %31 = load %struct.student*, %struct.student** %30, align 8
  store %struct.student* %31, %struct.student** %3, align 8
  br label %32

32:                                               ; preds = %8
  %33 = load %struct.student*, %struct.student** %3, align 8
  %34 = icmp ne %struct.student* %33, null
  br i1 %34, label %8, label %35

35:                                               ; preds = %32
  br label %36

36:                                               ; preds = %35, %1
  ret void
}

declare dso_local i32 @printf(i8*, ...) #2

; Function Attrs: noinline nounwind uwtable
define dso_local %struct.student* @exchange(%struct.student* %0) #0 {
  %2 = alloca %struct.student*, align 8
  %3 = alloca %struct.student*, align 8
  %4 = alloca %struct.student*, align 8
  %5 = alloca %struct.student*, align 8
  %6 = alloca %struct.student*, align 8
  store %struct.student* %0, %struct.student** %2, align 8
  store %struct.student* null, %struct.student** %6, align 8
  br label %7

7:                                                ; preds = %33, %1
  store %struct.student* null, %struct.student** %4, align 8
  %8 = load %struct.student*, %struct.student** %2, align 8
  store %struct.student* %8, %struct.student** %3, align 8
  br label %9

9:                                                ; preds = %14, %7
  %10 = load %struct.student*, %struct.student** %3, align 8
  %11 = getelementptr inbounds %struct.student, %struct.student* %10, i32 0, i32 6
  %12 = load %struct.student*, %struct.student** %11, align 8
  %13 = icmp ne %struct.student* %12, null
  br i1 %13, label %14, label %19

14:                                               ; preds = %9
  %15 = load %struct.student*, %struct.student** %3, align 8
  store %struct.student* %15, %struct.student** %4, align 8
  %16 = load %struct.student*, %struct.student** %3, align 8
  %17 = getelementptr inbounds %struct.student, %struct.student* %16, i32 0, i32 6
  %18 = load %struct.student*, %struct.student** %17, align 8
  store %struct.student* %18, %struct.student** %3, align 8
  br label %9

19:                                               ; preds = %9
  %20 = load %struct.student*, %struct.student** %6, align 8
  %21 = icmp eq %struct.student* %20, null
  br i1 %21, label %22, label %27

22:                                               ; preds = %19
  %23 = load %struct.student*, %struct.student** %3, align 8
  store %struct.student* %23, %struct.student** %6, align 8
  %24 = load %struct.student*, %struct.student** %4, align 8
  %25 = load %struct.student*, %struct.student** %6, align 8
  %26 = getelementptr inbounds %struct.student, %struct.student* %25, i32 0, i32 6
  store %struct.student* %24, %struct.student** %26, align 8
  store %struct.student* %24, %struct.student** %5, align 8
  br label %27

27:                                               ; preds = %22, %19
  %28 = load %struct.student*, %struct.student** %4, align 8
  %29 = load %struct.student*, %struct.student** %5, align 8
  %30 = getelementptr inbounds %struct.student, %struct.student* %29, i32 0, i32 6
  store %struct.student* %28, %struct.student** %30, align 8
  store %struct.student* %28, %struct.student** %5, align 8
  %31 = load %struct.student*, %struct.student** %4, align 8
  %32 = getelementptr inbounds %struct.student, %struct.student* %31, i32 0, i32 6
  store %struct.student* null, %struct.student** %32, align 8
  br label %33

33:                                               ; preds = %27
  %34 = load %struct.student*, %struct.student** %2, align 8
  %35 = getelementptr inbounds %struct.student, %struct.student* %34, i32 0, i32 6
  %36 = load %struct.student*, %struct.student** %35, align 8
  %37 = icmp ne %struct.student* %36, null
  br i1 %37, label %7, label %38

38:                                               ; preds = %33
  %39 = load %struct.student*, %struct.student** %6, align 8
  ret %struct.student* %39
}

; Function Attrs: noinline nounwind uwtable
define dso_local i32 @main() #0 {
  %1 = alloca i32, align 4
  %2 = alloca %struct.student*, align 8
  %3 = alloca %struct.student*, align 8
  store i32 0, i32* %1, align 4
  %4 = call %struct.student* @input()
  store %struct.student* %4, %struct.student** %2, align 8
  %5 = load %struct.student*, %struct.student** %2, align 8
  %6 = call %struct.student* @exchange(%struct.student* %5)
  store %struct.student* %6, %struct.student** %3, align 8
  %7 = load %struct.student*, %struct.student** %3, align 8
  call void @output(%struct.student* %7)
  ret i32 0
}


!llvm.module.flags = !{!0}
!llvm.ident = !{!1}

!0 = !{i32 1, !"wchar_size", i32 4}
!1 = !{!"clang version 10.0.0-4ubuntu1 "}
